target datalayout = "e-m:e-p270:32:32-p271:32:32-p272:64:64-i64:64-i128:128-f80:128-n8:16:32:64-S128"
target triple = "x86_64-pc-linux-gnu"

%struct.CbsP_Par_t_ = type { i32, i32, i32, i32, i32, i32, i32, i32, i32, i32, i32, i32, i32, i32, i32, i32, i32, i32, i32, i32, i32, i32, i32, i32, i64, i64, i64, i64, i64, i64, i64, i64, i64, i32, i32, i32 }

@.str = private unnamed_addr constant [49 x i8] c"max of solved: jscan# %13d rscan %13d prop %13d\0A\00", align 1
@.str.1 = private unnamed_addr constant [49 x i8] c"max of  undec: jscan# %13d rscan %13d prop %13d\0A\00", align 1
@.str.2 = private unnamed_addr constant [52 x i8] c"acc of    sat: jscan# %13ld rscan %13ld prop %13ld\0A\00", align 1
@.str.3 = private unnamed_addr constant [52 x i8] c"acc of  unsat: jscan# %13ld rscan %13ld prop %13ld\0A\00", align 1
@.str.4 = private unnamed_addr constant [52 x i8] c"acc of  undec: jscan# %13ld rscan %13ld prop %13ld\0A\00", align 1
@.str.5 = private unnamed_addr constant [52 x i8] c"avg of    sat: jscan# %13ld rscan %13ld prop %13ld\0A\00", align 1
@.str.6 = private unnamed_addr constant [52 x i8] c"avg of  unsat: jscan# %13ld rscan %13ld prop %13ld\0A\00", align 1
@.str.7 = private unnamed_addr constant [52 x i8] c"avg of  undec: jscan# %13ld rscan %13ld prop %13ld\0A\00", align 1

; Function Attrs: nounwind uwtable
define void @CbsP_PrintRecord(ptr noundef %0) #0 {
  %2 = alloca ptr, align 8
  store ptr %0, ptr %2, align 8, !tbaa !3
  %3 = load ptr, ptr %2, align 8, !tbaa !3
  %4 = getelementptr inbounds nuw %struct.CbsP_Par_t_, ptr %3, i32 0, i32 18
  %5 = load i32, ptr %4, align 8, !tbaa !22
  %6 = load ptr, ptr %2, align 8, !tbaa !3
  %7 = getelementptr inbounds nuw %struct.CbsP_Par_t_, ptr %6, i32 0, i32 19
  %8 = load i32, ptr %7, align 4, !tbaa !23
  %9 = load ptr, ptr %2, align 8, !tbaa !3
  %10 = getelementptr inbounds nuw %struct.CbsP_Par_t_, ptr %9, i32 0, i32 20
  %11 = load i32, ptr %10, align 8, !tbaa !46
  %12 = call i32 (ptr, ...) @printf(ptr noundef @.str, i32 noundef %5, i32 noundef %8, i32 noundef %11)
  %13 = load ptr, ptr %2, align 8, !tbaa !3
  %14 = getelementptr inbounds nuw %struct.CbsP_Par_t_, ptr %13, i32 0, i32 15
  %15 = load i32, ptr %14, align 4, !tbaa !20
  %16 = load ptr, ptr %2, align 8, !tbaa !3
  %17 = getelementptr inbounds nuw %struct.CbsP_Par_t_, ptr %16, i32 0, i32 16
  %18 = load i32, ptr %17, align 8, !tbaa !21
  %19 = load ptr, ptr %2, align 8, !tbaa !3
  %20 = getelementptr inbounds nuw %struct.CbsP_Par_t_, ptr %19, i32 0, i32 17
  %21 = load i32, ptr %20, align 4, !tbaa !47
  %22 = call i32 (ptr, ...) @printf(ptr noundef @.str.1, i32 noundef %15, i32 noundef %18, i32 noundef %21)
  %23 = load ptr, ptr %2, align 8, !tbaa !3
  %24 = getelementptr inbounds nuw %struct.CbsP_Par_t_, ptr %23, i32 0, i32 24
  %25 = load i64, ptr %24, align 8, !tbaa !24
  %26 = load ptr, ptr %2, align 8, !tbaa !3
  %27 = getelementptr inbounds nuw %struct.CbsP_Par_t_, ptr %26, i32 0, i32 27
  %28 = load i64, ptr %27, align 8, !tbaa !27
  %29 = load ptr, ptr %2, align 8, !tbaa !3
  %30 = getelementptr inbounds nuw %struct.CbsP_Par_t_, ptr %29, i32 0, i32 30
  %31 = load i64, ptr %30, align 8, !tbaa !48
  %32 = call i32 (ptr, ...) @printf(ptr noundef @.str.2, i64 noundef %25, i64 noundef %28, i64 noundef %31)
  %33 = load ptr, ptr %2, align 8, !tbaa !3
  %34 = getelementptr inbounds nuw %struct.CbsP_Par_t_, ptr %33, i32 0, i32 25
  %35 = load i64, ptr %34, align 8, !tbaa !25
  %36 = load ptr, ptr %2, align 8, !tbaa !3
  %37 = getelementptr inbounds nuw %struct.CbsP_Par_t_, ptr %36, i32 0, i32 28
  %38 = load i64, ptr %37, align 8, !tbaa !28
  %39 = load ptr, ptr %2, align 8, !tbaa !3
  %40 = getelementptr inbounds nuw %struct.CbsP_Par_t_, ptr %39, i32 0, i32 31
  %41 = load i64, ptr %40, align 8, !tbaa !49
  %42 = call i32 (ptr, ...) @printf(ptr noundef @.str.3, i64 noundef %35, i64 noundef %38, i64 noundef %41)
  %43 = load ptr, ptr %2, align 8, !tbaa !3
  %44 = getelementptr inbounds nuw %struct.CbsP_Par_t_, ptr %43, i32 0, i32 26
  %45 = load i64, ptr %44, align 8, !tbaa !26
  %46 = load ptr, ptr %2, align 8, !tbaa !3
  %47 = getelementptr inbounds nuw %struct.CbsP_Par_t_, ptr %46, i32 0, i32 29
  %48 = load i64, ptr %47, align 8, !tbaa !29
  %49 = load ptr, ptr %2, align 8, !tbaa !3
  %50 = getelementptr inbounds nuw %struct.CbsP_Par_t_, ptr %49, i32 0, i32 32
  %51 = load i64, ptr %50, align 8, !tbaa !50
  %52 = call i32 (ptr, ...) @printf(ptr noundef @.str.4, i64 noundef %45, i64 noundef %48, i64 noundef %51)
  %53 = load ptr, ptr %2, align 8, !tbaa !3
  %54 = getelementptr inbounds nuw %struct.CbsP_Par_t_, ptr %53, i32 0, i32 21
  %55 = load i32, ptr %54, align 4, !tbaa !30
  %56 = icmp ne i32 %55, 0
  br i1 %56, label %57, label %83

57:                                               ; preds = %1
  %58 = load ptr, ptr %2, align 8, !tbaa !3
  %59 = getelementptr inbounds nuw %struct.CbsP_Par_t_, ptr %58, i32 0, i32 24
  %60 = load i64, ptr %59, align 8, !tbaa !24
  %61 = load ptr, ptr %2, align 8, !tbaa !3
  %62 = getelementptr inbounds nuw %struct.CbsP_Par_t_, ptr %61, i32 0, i32 21
  %63 = load i32, ptr %62, align 4, !tbaa !30
  %64 = sext i32 %63 to i64
  %65 = sdiv i64 %60, %64
  %66 = load ptr, ptr %2, align 8, !tbaa !3
  %67 = getelementptr inbounds nuw %struct.CbsP_Par_t_, ptr %66, i32 0, i32 27
  %68 = load i64, ptr %67, align 8, !tbaa !27
  %69 = load ptr, ptr %2, align 8, !tbaa !3
  %70 = getelementptr inbounds nuw %struct.CbsP_Par_t_, ptr %69, i32 0, i32 21
  %71 = load i32, ptr %70, align 4, !tbaa !30
  %72 = sext i32 %71 to i64
  %73 = sdiv i64 %68, %72
  %74 = load ptr, ptr %2, align 8, !tbaa !3
  %75 = getelementptr inbounds nuw %struct.CbsP_Par_t_, ptr %74, i32 0, i32 30
  %76 = load i64, ptr %75, align 8, !tbaa !48
  %77 = load ptr, ptr %2, align 8, !tbaa !3
  %78 = getelementptr inbounds nuw %struct.CbsP_Par_t_, ptr %77, i32 0, i32 21
  %79 = load i32, ptr %78, align 4, !tbaa !30
  %80 = sext i32 %79 to i64
  %81 = sdiv i64 %76, %80
  %82 = call i32 (ptr, ...) @printf(ptr noundef @.str.5, i64 noundef %65, i64 noundef %73, i64 noundef %81)
  br label %83

83:                                               ; preds = %57, %1
  %84 = load ptr, ptr %2, align 8, !tbaa !3
  %85 = getelementptr inbounds nuw %struct.CbsP_Par_t_, ptr %84, i32 0, i32 22
  %86 = load i32, ptr %85, align 8, !tbaa !31
  %87 = icmp ne i32 %86, 0
  br i1 %87, label %88, label %114

88:                                               ; preds = %83
  %89 = load ptr, ptr %2, align 8, !tbaa !3
  %90 = getelementptr inbounds nuw %struct.CbsP_Par_t_, ptr %89, i32 0, i32 25
  %91 = load i64, ptr %90, align 8, !tbaa !25
  %92 = load ptr, ptr %2, align 8, !tbaa !3
  %93 = getelementptr inbounds nuw %struct.CbsP_Par_t_, ptr %92, i32 0, i32 22
  %94 = load i32, ptr %93, align 8, !tbaa !31
  %95 = sext i32 %94 to i64
  %96 = sdiv i64 %91, %95
  %97 = load ptr, ptr %2, align 8, !tbaa !3
  %98 = getelementptr inbounds nuw %struct.CbsP_Par_t_, ptr %97, i32 0, i32 28
  %99 = load i64, ptr %98, align 8, !tbaa !28
  %100 = load ptr, ptr %2, align 8, !tbaa !3
  %101 = getelementptr inbounds nuw %struct.CbsP_Par_t_, ptr %100, i32 0, i32 22
  %102 = load i32, ptr %101, align 8, !tbaa !31
  %103 = sext i32 %102 to i64
  %104 = sdiv i64 %99, %103
  %105 = load ptr, ptr %2, align 8, !tbaa !3
  %106 = getelementptr inbounds nuw %struct.CbsP_Par_t_, ptr %105, i32 0, i32 31
  %107 = load i64, ptr %106, align 8, !tbaa !49
  %108 = load ptr, ptr %2, align 8, !tbaa !3
  %109 = getelementptr inbounds nuw %struct.CbsP_Par_t_, ptr %108, i32 0, i32 22
  %110 = load i32, ptr %109, align 8, !tbaa !31
  %111 = sext i32 %110 to i64
  %112 = sdiv i64 %107, %111
  %113 = call i32 (ptr, ...) @printf(ptr noundef @.str.6, i64 noundef %96, i64 noundef %104, i64 noundef %112)
  br label %114

114:                                              ; preds = %88, %83
  %115 = load ptr, ptr %2, align 8, !tbaa !3
  %116 = getelementptr inbounds nuw %struct.CbsP_Par_t_, ptr %115, i32 0, i32 23
  %117 = load i32, ptr %116, align 4, !tbaa !32
  %118 = icmp ne i32 %117, 0
  br i1 %118, label %119, label %145

119:                                              ; preds = %114
  %120 = load ptr, ptr %2, align 8, !tbaa !3
  %121 = getelementptr inbounds nuw %struct.CbsP_Par_t_, ptr %120, i32 0, i32 26
  %122 = load i64, ptr %121, align 8, !tbaa !26
  %123 = load ptr, ptr %2, align 8, !tbaa !3
  %124 = getelementptr inbounds nuw %struct.CbsP_Par_t_, ptr %123, i32 0, i32 23
  %125 = load i32, ptr %124, align 4, !tbaa !32
  %126 = sext i32 %125 to i64
  %127 = sdiv i64 %122, %126
  %128 = load ptr, ptr %2, align 8, !tbaa !3
  %129 = getelementptr inbounds nuw %struct.CbsP_Par_t_, ptr %128, i32 0, i32 29
  %130 = load i64, ptr %129, align 8, !tbaa !29
  %131 = load ptr, ptr %2, align 8, !tbaa !3
  %132 = getelementptr inbounds nuw %struct.CbsP_Par_t_, ptr %131, i32 0, i32 23
  %133 = load i32, ptr %132, align 4, !tbaa !32
  %134 = sext i32 %133 to i64
  %135 = sdiv i64 %130, %134
  %136 = load ptr, ptr %2, align 8, !tbaa !3
  %137 = getelementptr inbounds nuw %struct.CbsP_Par_t_, ptr %136, i32 0, i32 32
  %138 = load i64, ptr %137, align 8, !tbaa !50
  %139 = load ptr, ptr %2, align 8, !tbaa !3
  %140 = getelementptr inbounds nuw %struct.CbsP_Par_t_, ptr %139, i32 0, i32 23
  %141 = load i32, ptr %140, align 4, !tbaa !32
  %142 = sext i32 %141 to i64
  %143 = sdiv i64 %138, %142
  %144 = call i32 (ptr, ...) @printf(ptr noundef @.str.7, i64 noundef %127, i64 noundef %135, i64 noundef %143)
  br label %145

145:                                              ; preds = %119, %114
  ret void
}