; Function Attrs: nofree nounwind uwtable
define void @CbsP_PrintRecord(ptr noundef readonly captures(none) %0) local_unnamed_addr #2 {
  %2 = getelementptr inbounds nuw i8, ptr %0, i64 72
  %3 = load i32, ptr %2, align 8, !tbaa !28
  %4 = getelementptr inbounds nuw i8, ptr %0, i64 76
  %5 = load i32, ptr %4, align 4, !tbaa !16
  %6 = getelementptr inbounds nuw i8, ptr %0, i64 80
  %7 = load i32, ptr %6, align 8, !tbaa !29
  %8 = tail call i32 (ptr, ...) @printf(ptr noundef nonnull dereferenceable(1) @.str, i32 noundef %3, i32 noundef %5, i32 noundef %7)
  %9 = getelementptr inbounds nuw i8, ptr %0, i64 60
  %10 = load i32, ptr %9, align 4, !tbaa !30
  %11 = getelementptr inbounds nuw i8, ptr %0, i64 64
  %12 = load i32, ptr %11, align 8, !tbaa !15
  %13 = getelementptr inbounds nuw i8, ptr %0, i64 68
  %14 = load i32, ptr %13, align 4, !tbaa !31
  %15 = tail call i32 (ptr, ...) @printf(ptr noundef nonnull dereferenceable(1) @.str.1, i32 noundef %10, i32 noundef %12, i32 noundef %14)
  %16 = getelementptr inbounds nuw i8, ptr %0, i64 96
  %17 = load i64, ptr %16, align 8, !tbaa !32
  %18 = getelementptr inbounds nuw i8, ptr %0, i64 120
  %19 = load i64, ptr %18, align 8, !tbaa !33
  %20 = getelementptr inbounds nuw i8, ptr %0, i64 144
  %21 = load i64, ptr %20, align 8, !tbaa !34
  %22 = tail call i32 (ptr, ...) @printf(ptr noundef nonnull dereferenceable(1) @.str.2, i64 noundef %17, i64 noundef %19, i64 noundef %21)
  %23 = getelementptr inbounds nuw i8, ptr %0, i64 104
  %24 = load i64, ptr %23, align 8, !tbaa !35
  %25 = getelementptr inbounds nuw i8, ptr %0, i64 128
  %26 = load i64, ptr %25, align 8, !tbaa !36
  %27 = getelementptr inbounds nuw i8, ptr %0, i64 152
  %28 = load i64, ptr %27, align 8, !tbaa !37
  %29 = tail call i32 (ptr, ...) @printf(ptr noundef nonnull dereferenceable(1) @.str.3, i64 noundef %24, i64 noundef %26, i64 noundef %28)
  %30 = getelementptr inbounds nuw i8, ptr %0, i64 112
  %31 = load i64, ptr %30, align 8, !tbaa !38
  %32 = getelementptr inbounds nuw i8, ptr %0, i64 136
  %33 = load i64, ptr %32, align 8, !tbaa !39
  %34 = getelementptr inbounds nuw i8, ptr %0, i64 160
  %35 = load i64, ptr %34, align 8, !tbaa !40
  %36 = tail call i32 (ptr, ...) @printf(ptr noundef nonnull dereferenceable(1) @.str.4, i64 noundef %31, i64 noundef %33, i64 noundef %35)
  %37 = getelementptr inbounds nuw i8, ptr %0, i64 84
  %38 = load i32, ptr %37, align 4, !tbaa !41
  %.not = icmp eq i32 %38, 0
  br i1 %.not, label %48, label %39

39:                                               ; preds = %1
  %40 = load i64, ptr %16, align 8, !tbaa !32
  %41 = sext i32 %38 to i64
  %42 = sdiv i64 %40, %41
  %43 = load i64, ptr %18, align 8, !tbaa !33
  %44 = sdiv i64 %43, %41
  %45 = load i64, ptr %20, align 8, !tbaa !34
  %46 = sdiv i64 %45, %41
  %47 = tail call i32 (ptr, ...) @printf(ptr noundef nonnull dereferenceable(1) @.str.5, i64 noundef %42, i64 noundef %44, i64 noundef %46)
  br label %48

48:                                               ; preds = %39, %1
  %49 = getelementptr inbounds nuw i8, ptr %0, i64 88
  %50 = load i32, ptr %49, align 8, !tbaa !42
  %.not38 = icmp eq i32 %50, 0
  br i1 %.not38, label %60, label %51

51:                                               ; preds = %48
  %52 = load i64, ptr %23, align 8, !tbaa !35
  %53 = sext i32 %50 to i64
  %54 = sdiv i64 %52, %53
  %55 = load i64, ptr %25, align 8, !tbaa !36
  %56 = sdiv i64 %55, %53
  %57 = load i64, ptr %27, align 8, !tbaa !37
  %58 = sdiv i64 %57, %53
  %59 = tail call i32 (ptr, ...) @printf(ptr noundef nonnull dereferenceable(1) @.str.6, i64 noundef %54, i64 noundef %56, i64 noundef %58)
  br label %60

60:                                               ; preds = %51, %48
  %61 = getelementptr inbounds nuw i8, ptr %0, i64 92
  %62 = load i32, ptr %61, align 4, !tbaa !43
  %.not39 = icmp eq i32 %62, 0
  br i1 %.not39, label %72, label %63

63:                                               ; preds = %60
  %64 = load i64, ptr %30, align 8, !tbaa !38
  %65 = sext i32 %62 to i64
  %66 = sdiv i64 %64, %65
  %67 = load i64, ptr %32, align 8, !tbaa !39
  %68 = sdiv i64 %67, %65
  %69 = load i64, ptr %34, align 8, !tbaa !40
  %70 = sdiv i64 %69, %65
  %71 = tail call i32 (ptr, ...) @printf(ptr noundef nonnull dereferenceable(1) @.str.7, i64 noundef %66, i64 noundef %68, i64 noundef %70)
  br label %72

72:                                               ; preds = %63, %60
  ret void
}